; Function Attrs: mustprogress nounwind uwtable
define void @_ZN7glslang8TProgram14dumpReflectionEv(ptr noundef nonnull readonly align 8 captures(none) dereferenceable(497) %0) local_unnamed_addr #3 align 2 {
  %2 = getelementptr inbounds nuw i8, ptr %0, i64 488
  %3 = load ptr, ptr %2, align 8
  %.not = icmp eq ptr %3, null
  br i1 %.not, label %5, label %4

4:                                                ; preds = %1
  tail call void @_ZN7glslang11TReflection4dumpEv(ptr noundef nonnull align 8 dereferenceable(428) %3) #24
  br label %5

5:                                                ; preds = %4, %1
  ret void
}